(dp0
S'SRR7764409.fastq.gz_filtered.sam.match_0.5'
p1
(dp2
I979712
I3
sI5250
I1
sI5125
I2
sI47751
I2
sI55176
I3
sI160909
I1
sI4751
I2
sI34450
I1
sI5139
I2
sI40468
I1
sI121621
I1
sI28568
I1
sI5401
I1
sI5402
I1
sI4890
I27
sI147547
I1
sI5543
I1
sI56488
I2
sI89791
I1
sI68779
I1
sI64561
I1
sI5042
I1
sI29875
I1
sI156596
I2
sI681950
I1
sI5178
I7
sI92860
I2
sI78141
I3
sI1335925
I1
sI5569
I2
sI517574
I1
sI50375
I1
sI47817
I1
sI103886
I1
sI5583
I1
sI134362
I3
sI147538
I1
sI43219
I3
sI5204
I3
sI147541
I7
sI5206
I2
sI147545
I6
sI5338
I3
sI34395
I6
sI147548
I4
sI34397
I2
sI147550
I5
sI297313
I1
sI286563
I1
sI5094
I3
sI187248
I1
sI146291
I1
sI34451
I1
sI80757
I1
sI4854
I1
sI4855
I4
sI37240
I1
sI5498
I1
sI152767
I1
ssS'SRR7764404.fastq.gz_filtered.sam.match_0.5'
p3
(dp4
I5506
I1
sI5125
I1
sI47751
I1
sI160909
I1
sI4751
I1
sI34450
I1
sI34451
I2
sI68756
I1
sI13205
I1
sI28568
I1
sI162481
I1
sI4890
I16
sI5148
I1
sI5149
I1
sI5023
I1
sI5543
I1
sI40105
I1
sI68779
I1
sI162480
I1
sI64561
I2
sI5042
I1
sI290614
I2
sI1851575
I1
sI5178
I4
sI41247
I1
sI92860
I4
sI78141
I2
sI89791
I1
sI5569
I1
sI47817
I1
sI103886
I1
sI43219
I2
sI5204
I1
sI147541
I4
sI5206
I2
sI147545
I1
sI134362
I2
sI34395
I4
sI147548
I2
sI34397
I1
sI147550
I5
sI155619
I1
sI5094
I1
sI37990
I1
sI214503
I1
sI5226
I1
sI76657
I1
sI4855
I2
sI665596
I1
sI105983
I1
ssS'SRR7764443.fastq.gz_filtered.sam.match_0.5'
p5
(dp6
I34433
I1
sI5506
I1
sI5125
I1
sI4751
I3
sI34451
I1
sI28568
I2
sI4890
I19
sI286563
I2
sI5148
I1
sI155619
I2
sI34395
I6
sI5543
I1
sI40105
I1
sI64561
I2
sI5042
I1
sI29875
I1
sI290614
I6
sI1851575
I1
sI5178
I5
sI41247
I1
sI92860
I2
sI5181
I1
sI42302
I1
sI89791
I1
sI2024004
I1
sI297313
I1
sI47817
I1
sI5581
I1
sI103887
I1
sI43216
I2
sI43219
I1
sI5204
I2
sI147541
I6
sI5206
I1
sI5338
I2
sI147547
I3
sI147548
I4
sI34397
I1
sI147550
I9
sI1075807
I1
sI40289
I1
sI5475
I1
sI37990
I1
sI5094
I2
sI5226
I1
sI221678
I1
sI78141
I3
sI5114
I1
sI5139
I1
sI474942
I1
sI4854
I1
sI4855
I1
sI37240
I1
sI5498
I1
sI452337
I1
sI858847
I1
ssS'SRR7764419.fastq.gz_filtered.sam.match_0.5'
p7
(dp8
I76657
I1
sI5506
I1
sI155619
I4
sI5125
I2
sI35718
I1
sI858342
I1
sI160909
I1
sI4751
I1
sI34450
I2
sI5139
I1
sI28568
I1
sI5401
I1
sI4890
I27
sI5148
I1
sI5530
I1
sI1339697
I1
sI5023
I1
sI442663
I1
sI231213
I1
sI56494
I1
sI64561
I3
sI5042
I1
sI29875
I1
sI156596
I1
sI681950
I1
sI290614
I1
sI37990
I1
sI82105
I2
sI5178
I8
sI41247
I1
sI92860
I4
sI78141
I3
sI42302
I1
sI89791
I1
sI5569
I2
sI2024004
I1
sI202694
I1
sI1079112
I1
sI452343
I1
sI5581
I1
sI103886
I2
sI37840
I1
sI1759442
I1
sI43219
I1
sI5204
I2
sI147541
I7
sI5206
I1
sI147545
I3
sI5338
I1
sI34395
I7
sI147548
I4
sI34397
I1
sI147550
I14
sI292576
I1
sI43216
I1
sI286563
I1
sI37989
I2
sI5094
I6
sI214503
I1
sI5052
I1
sI5226
I1
sI452334
I1
sI5104
I1
sI452337
I1
sI34451
I1
sI4854
I2
sI4855
I3
sI37240
I3
sI1851575
I1
ssS'SRR7764390.fastq.gz_filtered.sam.match_0.5'
p9
(dp10
I5125
I2
sI5139
I5
sI40468
I1
sI56494
I1
sI5148
I1
sI34395
I8
sI64561
I3
sI5178
I11
sI278090
I1
sI5204
I2
sI147541
I6
sI5206
I1
sI147547
I3
sI147548
I10
sI34397
I1
sI147550
I18
sI1075807
I1
sI63588
I1
sI37989
I1
sI37990
I1
sI37991
I1
sI5226
I1
sI5234
I1
sI42302
I1
sI1335925
I1
sI152767
I1
sI47751
I1
sI160909
I1
sI4751
I3
sI34451
I3
sI56488
I2
sI40105
I1
sI40562
I1
sI54958
I1
sI29875
I1
sI162484
I2
sI1851575
I1
sI82105
I1
sI92860
I7
sI89791
I1
sI1049286
I1
sI47817
I2
sI43216
I2
sI43219
I3
sI134362
I2
sI103887
I1
sI5340
I1
sI292576
I1
sI92898
I1
sI452337
I1
sI4854
I3
sI4855
I2
sI71935
I1
sI979712
I1
sI71937
I1
sI4890
I36
sI5338
I4
sI41247
I1
sI231213
I1
sI36658
I1
sI5598
I1
sI290614
I6
sI78141
I4
sI474942
I1
sI1124674
I1
sI1079112
I1
sI261460
I1
sI266071
I1
sI56158
I1
sI286563
I1
sI187248
I1
sI76657
I1
sI51006
I1
sI37240
I2
sI5506
I1
sI35718
I1
sI55176
I1
sI80757
I1
sI28568
I4
sI5543
I1
sI104366
I1
sI5042
I1
sI156596
I1
sI103886
I2
sI5583
I1
sI5073
I3
sI681950
I2
sI155616
I2
sI155619
I1
sI5094
I8
sI214503
I1
sI221678
I1
sI71669
I1
sI5114
I1
ssS'SRR7764433.fastq.gz_filtered.sam.match_0.5'
p11
(dp12
I979712
I1
sI5125
I3
sI47751
I2
sI4751
I4
sI268179
I1
sI80757
I1
sI28568
I1
sI4890
I27
sI286563
I1
sI5148
I1
sI41247
I1
sI1715235
I1
sI162481
I1
sI40105
I1
sI64561
I2
sI5042
I1
sI29875
I1
sI156596
I1
sI290614
I1
sI82105
I1
sI5178
I9
sI1075807
I1
sI92860
I4
sI78141
I3
sI474942
I1
sI474943
I2
sI5569
I2
sI5023
I1
sI175688
I1
sI47817
I1
sI5581
I1
sI103886
I1
sI43219
I3
sI5204
I2
sI147541
I8
sI5206
I2
sI147545
I1
sI5338
I4
sI147547
I4
sI147548
I6
sI29882
I1
sI147550
I7
sI37989
I1
sI155616
I1
sI297313
I1
sI34395
I5
sI155619
I1
sI37990
I1
sI5094
I4
sI214503
I1
sI5226
I1
sI5543
I1
sI42302
I1
sI4854
I1
sI4855
I1
sI89791
I1
ssS'SRR7764440.fastq.gz_filtered.sam.match_0.5'
p13
(dp14
I1715235
I1
sI5125
I2
sI35718
I1
sI47751
I1
sI4751
I1
sI34450
I1
sI268179
I1
sI40468
I1
sI28568
I1
sI4890
I19
sI5148
I1
sI41247
I1
sI34395
I2
sI162481
I1
sI56494
I1
sI64561
I1
sI5042
I1
sI147550
I5
sI290614
I1
sI5178
I4
sI5023
I1
sI92860
I3
sI78141
I4
sI42302
I1
sI299071
I1
sI5569
I4
sI2024004
I1
sI470087
I1
sI47817
I1
sI103886
I1
sI1335925
I1
sI43219
I2
sI5204
I1
sI147541
I2
sI147547
I4
sI147548
I3
sI34397
I1
sI681950
I1
sI155616
I1
sI474943
I1
sI286563
I1
sI5094
I2
sI5543
I1
sI5181
I1
sI452337
I1
sI34451
I1
sI80757
I1
sI4854
I2
sI4855
I2
sI37240
I1
sI68756
I1
sI89791
I1
ssS'SRR7764391.fastq.gz_filtered.sam.match_0.5'
p15
(dp16
I34433
I1
sI5125
I2
sI47751
I2
sI4751
I1
sI1715235
I1
sI5139
I2
sI40468
I2
sI28568
I1
sI5401
I1
sI4890
I16
sI104242
I1
sI110618
I1
sI41247
I2
sI147547
I2
sI231213
I1
sI56494
I1
sI64561
I1
sI5042
I1
sI29875
I1
sI290614
I2
sI5178
I4
sI5023
I1
sI92860
I2
sI78141
I4
sI42302
I1
sI89791
I1
sI531904
I1
sI5569
I2
sI5581
I1
sI103886
I1
sI43219
I2
sI5204
I2
sI147541
I3
sI5339
I1
sI147545
I3
sI5338
I1
sI34395
I3
sI147548
I2
sI34397
I2
sI147550
I3
sI155616
I1
sI155619
I1
sI5094
I3
sI71953
I1
sI5206
I1
sI5351
I1
sI34451
I2
sI4854
I2
sI4855
I2
sI37240
I1
sI474943
I1
ssS'SRR7764447.fastq.gz_filtered.sam.match_0.5'
p17
(dp18
I979712
I1
sI5506
I1
sI5125
I1
sI35718
I1
sI47751
I1
sI55176
I1
sI147547
I2
sI4751
I1
sI13201
I1
sI34451
I2
sI28568
I1
sI4890
I27
sI4892
I1
sI5338
I3
sI34395
I7
sI64561
I2
sI5543
I2
sI56488
I1
sI5148
I1
sI5149
I1
sI5114
I1
sI1339697
I1
sI5042
I2
sI29875
I1
sI56158
I1
sI290614
I5
sI1851575
I1
sI5178
I6
sI92860
I2
sI5181
I1
sI42302
I1
sI89791
I1
sI5569
I2
sI2024004
I1
sI155616
I1
sI1049286
I1
sI297313
I1
sI5581
I1
sI103887
I1
sI45489
I1
sI43219
I2
sI5204
I1
sI147541
I9
sI5206
I1
sI266071
I1
sI147545
I2
sI134362
I1
sI5583
I1
sI147548
I5
sI34397
I1
sI147550
I12
sI292576
I1
sI103393
I1
sI92898
I1
sI286563
I1
sI858342
I1
sI5094
I5
sI37991
I1
sI1538025
I1
sI221678
I1
sI78141
I2
sI452337
I1
sI5139
I1
sI1851509
I1
sI4854
I1
sI4855
I3
sI37240
I1
sI5498
I1
sI152767
I1
sI268179
I1
sI451454
I1
ssS'SRR7764410.fastq.gz_filtered.sam.match_0.5'
p19
(dp20
I979712
I2
sI5506
I1
sI5125
I1
sI47751
I1
sI147547
I1
sI4751
I3
sI34450
I1
sI5139
I2
sI40468
I1
sI28568
I2
sI4890
I16
sI5148
I1
sI5149
I1
sI5023
I1
sI1715235
I1
sI64561
I3
sI5543
I1
sI1515438
I1
sI5583
I1
sI162481
I1
sI5042
I1
sI29875
I1
sI156596
I1
sI147550
I9
sI290614
I1
sI1851575
I1
sI5178
I3
sI41247
I1
sI92860
I1
sI78141
I7
sI89791
I1
sI5569
I2
sI5581
I1
sI1335925
I1
sI43216
I1
sI43219
I3
sI5204
I1
sI147541
I4
sI5206
I2
sI574935
I1
sI147545
I3
sI5338
I2
sI34395
I11
sI147548
I2
sI34397
I1
sI681950
I1
sI155616
I1
sI297313
I1
sI155619
I1
sI37990
I1
sI5094
I3
sI214503
I1
sI76657
I1
sI80757
I1
sI4854
I2
sI4855
I4
sI105983
I1
ssS'SRR7764405.fastq.gz_filtered.sam.match_0.5'
p21
(dp22
I979712
I1
sI4892
I1
sI5125
I2
sI35718
I1
sI47751
I2
sI147547
I1
sI4751
I3
sI34451
I2
sI40468
I1
sI452334
I1
sI28568
I2
sI5401
I1
sI4890
I32
sI5148
I1
sI134362
I1
sI41247
I2
sI1715235
I2
sI29875
I1
sI5543
I1
sI42308
I1
sI5468
I1
sI64561
I2
sI5042
I1
sI155619
I1
sI147550
I11
sI290614
I1
sI1851575
I1
sI82105
I1
sI5178
I4
sI92860
I3
sI78141
I3
sI42302
I1
sI152767
I1
sI5569
I1
sI2024004
I1
sI1079112
I1
sI47817
I1
sI1217207
I1
sI103886
I2
sI5583
I2
sI43216
I1
sI1634513
I1
sI1759442
I1
sI43219
I2
sI5204
I1
sI147541
I6
sI5206
I1
sI147545
I1
sI5338
I4
sI34395
I7
sI147548
I9
sI34397
I1
sI681950
I3
sI1075807
I1
sI297313
I2
sI92898
I1
sI286563
I2
sI37989
I1
sI5094
I4
sI5226
I1
sI442663
I1
sI147538
I1
sI221678
I1
sI184431
I1
sI5234
I1
sI5139
I2
sI4854
I1
sI4855
I2
sI37240
I1
sI5498
I1
sI265084
I1
sI121621
I1
ssS'SRR7764426.fastq.gz_filtered.sam.match_0.5'
p23
(dp24
I979712
I2
sI1715235
I1
sI5506
I1
sI4751
I2
sI90257
I1
sI5139
I2
sI28568
I2
sI4890
I28
sI4892
I1
sI5338
I3
sI155619
I1
sI147547
I3
sI5543
I1
sI64561
I2
sI5042
I2
sI29875
I1
sI290614
I6
sI1851575
I1
sI5178
I4
sI92860
I3
sI78141
I4
sI474942
I1
sI89791
I2
sI5569
I2
sI2024004
I1
sI470087
I1
sI47817
I2
sI278090
I1
sI147538
I1
sI43219
I6
sI5204
I1
sI147541
I4
sI5206
I1
sI574935
I1
sI147545
I1
sI134362
I1
sI34395
I12
sI147548
I5
sI34397
I1
sI147550
I5
sI292576
I1
sI92898
I1
sI286563
I1
sI37990
I1
sI5094
I8
sI47720
I1
sI1538025
I1
sI5226
I2
sI221678
I1
sI76657
I1
sI42302
I1
sI51006
I1
sI4855
I2
sI665596
I1
sI71934
I1
ssS'SRR7764424.fastq.gz_filtered.sam.match_0.5'
p25
(dp26
I979712
I1
sI5125
I5
sI35718
I1
sI47751
I1
sI147547
I1
sI28556
I1
sI160909
I1
sI34450
I1
sI34451
I2
sI40468
I1
sI28568
I3
sI5094
I5
sI4890
I36
sI5204
I3
sI37990
I1
sI5023
I1
sI5339
I1
sI64561
I4
sI56488
I1
sI5148
I1
sI162474
I1
sI231213
I1
sI54958
I1
sI162481
I4
sI5042
I1
sI29875
I1
sI156596
I2
sI56757
I1
sI290614
I2
sI1132856
I1
sI5178
I5
sI92860
I3
sI78141
I5
sI42302
I1
sI89791
I1
sI5569
I2
sI2024004
I1
sI517574
I1
sI47817
I2
sI60108
I1
sI5581
I1
sI103886
I2
sI5073
I1
sI155619
I3
sI292180
I1
sI147541
I5
sI5206
I1
sI147545
I3
sI5338
I2
sI34395
I5
sI147548
I8
sI34397
I2
sI147550
I4
sI155616
I3
sI297313
I1
sI286563
I1
sI37989
I1
sI858342
I1
sI214503
I1
sI5052
I1
sI5543
I1
sI101104
I1
sI43219
I4
sI139380
I1
sI80757
I1
sI4854
I3
sI4855
I1
sI261460
I1
sI665596
I3
sI71934
I1
sI5139
I1
ssS'SRR7764421.fastq.gz_filtered.sam.match_0.5'
p27
(dp28
I71937
I1
sI71953
I1
sI40468
I1
sI28568
I1
sI5401
I1
sI4890
I7
sI162481
I1
sI41247
I2
sI5543
I1
sI64561
I2
sI5042
I1
sI29875
I1
sI290614
I1
sI5178
I2
sI78141
I4
sI89791
I1
sI5569
I2
sI5073
I1
sI43219
I1
sI147541
I1
sI5338
I2
sI34395
I1
sI155616
I1
sI155619
I1
sI5094
I2
sI4854
I1
sI37240
I2
ssS'SRR7764441.fastq.gz_filtered.sam.match_0.5'
p29
(dp30
I1715235
I1
sI5506
I1
sI51006
I1
sI5125
I2
sI35718
I1
sI71937
I1
sI4751
I1
sI34451
I1
sI68756
I1
sI5529
I1
sI28568
I2
sI162481
I2
sI4890
I36
sI286563
I1
sI5148
I1
sI5402
I1
sI5023
I2
sI29909
I1
sI147547
I4
sI5543
I1
sI40105
I1
sI47751
I1
sI56494
I1
sI71935
I1
sI64561
I3
sI5042
I1
sI29875
I1
sI290614
I3
sI5338
I2
sI5178
I6
sI41247
I1
sI92860
I6
sI78141
I7
sI42302
I2
sI89791
I1
sI5569
I3
sI37467
I1
sI470087
I1
sI47817
I1
sI5073
I1
sI43219
I2
sI5204
I3
sI147541
I5
sI5206
I2
sI147545
I1
sI134362
I1
sI34395
I7
sI147548
I5
sI34397
I2
sI147550
I8
sI37989
I1
sI155616
I2
sI103393
I1
sI155619
I2
sI37990
I1
sI5094
I5
sI37991
I1
sI5226
I1
sI452337
I1
sI80757
I1
sI4854
I1
sI4855
I1
sI37240
I2
sI5498
I1
sI105983
I1
sI665596
I2
sI74837
I1
ssS'SRR7764435.fastq.gz_filtered.sam.match_0.5'
p31
(dp32
I979712
I2
sI5506
I1
sI80643
I1
sI5125
I3
sI35718
I1
sI47751
I1
sI5129
I1
sI4751
I3
sI5139
I1
sI5401
I1
sI28568
I2
sI5094
I7
sI4890
I38
sI286563
I1
sI162481
I1
sI134362
I1
sI41247
I3
sI1715235
I2
sI1335925
I1
sI5583
I1
sI45489
I1
sI79272
I1
sI5148
I1
sI5234
I1
sI1515438
I1
sI64561
I4
sI5042
I2
sI29875
I1
sI156596
I1
sI4958
I1
sI1851575
I1
sI82105
I1
sI5178
I9
sI5052
I1
sI78141
I3
sI42302
I1
sI299071
I1
sI5569
I1
sI5317
I1
sI202694
I1
sI297313
I1
sI681950
I1
sI47817
I1
sI278090
I1
sI103886
I3
sI103887
I1
sI43216
I1
sI5073
I1
sI147538
I2
sI43219
I4
sI261460
I1
sI147541
I4
sI5206
I1
sI147545
I7
sI5338
I1
sI34395
I9
sI147548
I4
sI34397
I2
sI147550
I10
sI1075807
I1
sI36064
I1
sI40144
I1
sI92898
I1
sI155619
I1
sI37989
I2
sI37990
I1
sI56488
I2
sI92860
I3
sI5226
I1
sI5543
I1
sI76657
I1
sI268179
I1
sI34451
I3
sI80757
I1
sI4854
I2
sI4855
I2
sI37240
I1
sI5204
I1
sI89791
I1
sI665596
I1
ssS'SRR7764397.fastq.gz_filtered.sam.match_0.5'
p33
(dp34
I979712
I1
sI1715235
I1
sI5506
I1
sI5125
I1
sI35718
I1
sI47751
I2
sI55176
I1
sI28556
I1
sI4751
I2
sI34451
I1
sI40468
I1
sI28568
I1
sI4890
I28
sI5148
I1
sI134362
I2
sI1339697
I1
sI41247
I3
sI34395
I6
sI371108
I1
sI64561
I4
sI56488
I1
sI68779
I1
sI5042
I2
sI1079112
I1
sI162481
I2
sI5206
I2
sI29875
I1
sI162484
I1
sI147550
I10
sI290614
I4
sI37990
I1
sI156596
I2
sI5178
I6
sI92860
I5
sI1230397
I1
sI42302
I1
sI1335925
I1
sI5569
I2
sI2024004
I1
sI5317
I1
sI681950
I1
sI47817
I1
sI155616
I2
sI5581
I1
sI103886
I1
sI103887
I1
sI43216
I1
sI5368
I1
sI286563
I1
sI5204
I1
sI147541
I7
sI5339
I1
sI68793
I1
sI147545
I2
sI5338
I1
sI147547
I5
sI147548
I8
sI34397
I1
sI56158
I1
sI1075807
I1
sI292576
I1
sI92898
I1
sI5475
I1
sI37989
I2
sI5094
I5
sI5226
I1
sI5543
I1
sI221678
I1
sI78141
I4
sI452337
I1
sI43219
I3
sI80757
I1
sI4854
I2
sI4855
I2
sI37240
I4
sI5498
I1
sI89791
I1
sI47743
I1
ssS'SRR7764401.fastq.gz_filtered.sam.match_0.5'
p35
(dp36
I1715235
I2
sI5125
I3
sI35718
I1
sI47751
I1
sI55176
I2
sI147547
I2
sI4751
I3
sI34451
I4
sI13205
I1
sI28568
I1
sI5094
I3
sI4890
I31
sI5148
I1
sI5402
I1
sI1339697
I1
sI41247
I3
sI5339
I2
sI64561
I5
sI162481
I2
sI40105
I1
sI231213
I1
sI45489
I1
sI5042
I1
sI29875
I1
sI56757
I1
sI290614
I3
sI37990
I3
sI5178
I7
sI92860
I3
sI78141
I5
sI474942
I1
sI89791
I1
sI5569
I3
sI5317
I1
sI47817
I1
sI681950
I2
sI1798857
I1
sI5581
I1
sI103886
I3
sI36048
I1
sI5073
I1
sI1759442
I1
sI286563
I2
sI5204
I2
sI147541
I7
sI5206
I2
sI147545
I3
sI5338
I4
sI34395
I8
sI147548
I9
sI34397
I1
sI147550
I12
sI43216
I1
sI155619
I3
sI37989
I2
sI858342
I1
sI5226
I1
sI5543
I1
sI147538
I1
sI452337
I1
sI43219
I5
sI80757
I1
sI4854
I1
sI4855
I3
sI37240
I1
sI261460
I1
sI269155
I1
ssS'SRR7764402.fastq.gz_filtered.sam.match_0.5'
p37
(dp38
I979712
I1
sI5506
I1
sI5125
I2
sI35718
I1
sI47751
I1
sI103887
I1
sI147547
I3
sI5250
I1
sI71950
I1
sI34451
I3
sI68756
I1
sI28568
I2
sI4890
I22
sI286563
I2
sI5148
I1
sI134362
I1
sI55070
I1
sI41247
I2
sI37989
I1
sI1715235
I3
sI29875
I1
sI162481
I1
sI56488
I2
sI4892
I1
sI182058
I1
sI64561
I3
sI5042
I2
sI5427
I1
sI162484
I1
sI681950
I1
sI290614
I4
sI1851575
I1
sI82105
I1
sI5178
I7
sI509727
I1
sI5052
I1
sI78141
I4
sI474942
I1
sI89791
I1
sI5569
I2
sI5317
I2
sI47817
I1
sI5581
I1
sI103886
I1
sI5583
I1
sI37840
I1
sI43219
I1
sI5204
I1
sI147541
I5
sI5206
I2
sI574935
I1
sI147545
I4
sI5338
I3
sI34395
I6
sI147548
I2
sI34397
I3
sI147550
I16
sI1075807
I1
sI155616
I2
sI155619
I2
sI37990
I3
sI5094
I4
sI92860
I1
sI5226
I1
sI5543
I1
sI5181
I1
sI76657
I1
sI5234
I2
sI42302
I1
sI1851509
I1
sI4854
I2
sI4855
I2
sI37240
I2
sI5369
I1
sI5498
I1
sI292576
I2
sI5139
I1
ssS'SRR7764394.fastq.gz_filtered.sam.match_0.5'
p39
(dp40
I71937
I1
sI5506
I1
sI5125
I2
sI35718
I1
sI34444
I1
sI4751
I1
sI1715235
I1
sI5139
I1
sI68756
I1
sI28568
I2
sI5094
I3
sI4890
I30
sI286563
I1
sI5148
I1
sI134362
I2
sI41247
I2
sI34395
I6
sI64561
I4
sI5543
I1
sI162481
I1
sI5042
I1
sI29875
I1
sI681950
I1
sI290614
I2
sI1851575
I1
sI5178
I5
sI92860
I5
sI78141
I4
sI474942
I1
sI79807
I1
sI5569
I2
sI5317
I1
sI470087
I1
sI47817
I1
sI278090
I1
sI1339697
I1
sI103886
I1
sI1335925
I1
sI43216
I1
sI37240
I1
sI43219
I3
sI5204
I2
sI147541
I7
sI5206
I2
sI858342
I1
sI147545
I2
sI5338
I3
sI147547
I2
sI147548
I4
sI34397
I1
sI147550
I14
sI292576
I1
sI92898
I1
sI155619
I1
sI37989
I2
sI37990
I2
sI5073
I1
sI5226
I1
sI40427
I1
sI221678
I1
sI5181
I1
sI187248
I1
sI452337
I1
sI34451
I2
sI80757
I1
sI103887
I1
sI4855
I3
sI5368
I1
sI40468
I1
sI5498
I1
sI89791
I1
sI71935
I1
ssS'SRR7764434.fastq.gz_filtered.sam.match_0.5'
p41
(dp42
I71937
I1
sI5506
I1
sI5125
I1
sI35718
I1
sI28556
I1
sI268179
I1
sI28568
I2
sI4890
I21
sI5149
I1
sI155619
I1
sI147547
I2
sI5543
I1
sI64561
I3
sI5042
I1
sI29875
I1
sI156596
I1
sI147550
I12
sI1851575
I1
sI5338
I1
sI5178
I5
sI5023
I1
sI92860
I2
sI78141
I2
sI474942
I1
sI89791
I1
sI5569
I3
sI103887
I1
sI43216
I1
sI43219
I1
sI261460
I1
sI147541
I5
sI5206
I1
sI147545
I3
sI134362
I2
sI34395
I6
sI147548
I2
sI34397
I1
sI681950
I1
sI155616
I1
sI286563
I1
sI37990
I1
sI5094
I3
sI5226
I1
sI42302
I1
sI4855
I1
sI37240
I1
sI5204
I1
ssS'SRR7764411.fastq.gz_filtered.sam.match_0.5'
p43
(dp44
I979712
I1
sI5506
I1
sI5339
I1
sI5125
I3
sI35718
I1
sI160909
I1
sI4751
I3
sI71953
I1
sI34451
I1
sI68756
I2
sI121621
I1
sI5401
I1
sI28568
I1
sI5529
I1
sI4890
I30
sI5148
I1
sI134362
I1
sI41247
I2
sI147547
I1
sI64561
I2
sI4892
I1
sI231213
I1
sI56494
I2
sI4854
I1
sI162481
I1
sI5042
I1
sI29875
I1
sI156596
I2
sI56158
I1
sI1851575
I1
sI5178
I7
sI92860
I2
sI78141
I7
sI42302
I1
sI89791
I1
sI5569
I1
sI5317
I2
sI47817
I1
sI5581
I2
sI103886
I1
sI5583
I1
sI43219
I3
sI5204
I2
sI147541
I7
sI5206
I2
sI266071
I1
sI147545
I4
sI5338
I4
sI34395
I4
sI147548
I3
sI34397
I3
sI147550
I8
sI5543
I2
sI36064
I1
sI5530
I1
sI286563
I1
sI5094
I5
sI665596
I1
sI5226
I1
sI442663
I1
sI155616
I1
sI5234
I1
sI80757
I1
sI103887
I1
sI4855
I4
sI299071
I1
sI110844
I1
ssS'SRR7764393.fastq.gz_filtered.sam.match_0.5'
p45
(dp46
I5339
I1
sI155619
I2
sI5125
I2
sI47751
I1
sI34450
I3
sI5139
I2
sI68756
I1
sI28568
I1
sI5401
I1
sI4890
I17
sI41247
I3
sI1715235
I1
sI5543
I1
sI5340
I1
sI64561
I2
sI5042
I1
sI29875
I1
sI156596
I1
sI5178
I2
sI92860
I2
sI78141
I3
sI42302
I1
sI89791
I1
sI5569
I2
sI2024004
I2
sI47817
I1
sI103886
I1
sI43216
I1
sI5073
I1
sI43219
I1
sI5204
I2
sI147541
I7
sI5206
I2
sI147545
I3
sI5338
I1
sI34395
I3
sI147548
I3
sI34397
I1
sI147550
I3
sI1075807
I1
sI292576
I1
sI286563
I2
sI37990
I1
sI5094
I3
sI214503
I1
sI160871
I1
sI137746
I1
sI5181
I1
sI452337
I1
sI34451
I2
sI4855
I1
sI37240
I1
sI152767
I1
sI29820
I1
sI56487
I1
sI105983
I1
ssS'SRR7764429.fastq.gz_filtered.sam.match_0.5'
p47
(dp48
I979712
I2
sI1715235
I1
sI5125
I1
sI35718
I1
sI5569
I2
sI71944
I1
sI34444
I1
sI4751
I6
sI34451
I2
sI40468
I1
sI121621
I1
sI28568
I4
sI5401
I1
sI4890
I39
sI286563
I1
sI4892
I1
sI134362
I2
sI404338
I1
sI5023
I3
sI5427
I1
sI34395
I9
sI64561
I4
sI5543
I1
sI42308
I1
sI5340
I2
sI47751
I2
sI231213
I1
sI162480
I1
sI162481
I3
sI5042
I2
sI29875
I1
sI156596
I1
sI147550
I12
sI290614
I3
sI37990
I2
sI40105
I2
sI5178
I10
sI41247
I5
sI92860
I4
sI78141
I7
sI42302
I1
sI152767
I1
sI36064
I1
sI45489
I1
sI2024004
I1
sI47817
I2
sI5581
I1
sI103886
I2
sI1634513
I1
sI43219
I5
sI5204
I3
sI147541
I7
sI5206
I1
sI858342
I1
sI147545
I5
sI5338
I4
sI147547
I2
sI147548
I9
sI34397
I1
sI681950
I1
sI1075807
I1
sI155616
I1
sI297313
I1
sI155619
I2
sI56158
I1
sI37989
I2
sI5094
I7
sI214503
I1
sI5052
I1
sI5226
I1
sI5148
I1
sI184431
I1
sI76657
I1
sI5234
I1
sI139380
I1
sI1335925
I1
sI4855
I2
sI37240
I2
sI1033978
I1
sI89791
I1
sI5498
I1
ssS'SRR7764427.fastq.gz_filtered.sam.match_0.5'
p49
(dp50
I34433
I1
sI5506
I1
sI5125
I1
sI35718
I1
sI76657
I1
sI4751
I4
sI5144
I1
sI137746
I1
sI5139
I1
sI28568
I3
sI4890
I23
sI286563
I1
sI5148
I1
sI5338
I2
sI41247
I4
sI147547
I2
sI64561
I1
sI56488
I1
sI40105
I1
sI56494
I1
sI162480
I1
sI162481
I1
sI5042
I2
sI29875
I1
sI162484
I1
sI681950
I1
sI290614
I4
sI82105
I1
sI5178
I6
sI5023
I1
sI92860
I2
sI78141
I4
sI42302
I1
sI89791
I2
sI109632
I1
sI5569
I1
sI5186
I1
sI5317
I1
sI47817
I1
sI60108
I1
sI1339697
I3
sI1335925
I1
sI5073
I1
sI43219
I3
sI5204
I3
sI147541
I5
sI5206
I2
sI147545
I4
sI134362
I1
sI34395
I8
sI147548
I3
sI34397
I1
sI147550
I7
sI37989
I1
sI292576
I1
sI297313
I3
sI155619
I2
sI56158
I1
sI858342
I1
sI5094
I4
sI5052
I1
sI5543
I1
sI452337
I1
sI404338
I1
sI34451
I1
sI80757
I1
sI4854
I1
sI4855
I1
sI37240
I1
sI155616
I1
ssS'SRR7764399.fastq.gz_filtered.sam.match_0.5'
p51
(dp52
I979712
I1
sI5250
I1
sI47751
I2
sI5506
I1
sI4751
I3
sI71953
I1
sI137746
I1
sI80757
I1
sI28568
I1
sI4890
I13
sI286563
I1
sI5148
I1
sI5149
I1
sI41247
I3
sI1715235
I2
sI1335925
I1
sI442663
I1
sI56488
I1
sI104366
I1
sI64561
I1
sI5042
I2
sI290614
I2
sI1851575
I1
sI5305
I1
sI5178
I4
sI92860
I2
sI78141
I1
sI42302
I1
sI89791
I1
sI47817
I1
sI5583
I1
sI43216
I1
sI147538
I1
sI43219
I3
sI147541
I3
sI5206
I1
sI147545
I3
sI5338
I1
sI34395
I3
sI147548
I1
sI34397
I1
sI147550
I10
sI155616
I1
sI155619
I1
sI37990
I1
sI5094
I5
sI5543
I1
sI5234
I1
sI1851509
I1
sI4855
I3
sI152767
I1
sI71935
I1
ssS'SRR7764431.fastq.gz_filtered.sam.match_0.5'
p53
(dp54
I47751
I2
sI4751
I1
sI71953
I1
sI40468
I2
sI5401
I1
sI4890
I15
sI41247
I2
sI5339
I1
sI64561
I2
sI5042
I1
sI56494
I1
sI162481
I1
sI147547
I1
sI29875
I1
sI162484
I1
sI290614
I1
sI5178
I5
sI5023
I1
sI92860
I1
sI78141
I3
sI474943
I1
sI5569
I2
sI5581
I1
sI103886
I1
sI43219
I1
sI147541
I3
sI5206
I1
sI34395
I1
sI34397
I1
sI147550
I2
sI155616
I1
sI155619
I1
sI858342
I1
sI5094
I2
sI5351
I1
sI5226
I1
sI5543
I1
sI4854
I1
sI4855
I1
sI37240
I1
sI89791
I1
ssS'SRR7764446.fastq.gz_filtered.sam.match_0.5'
p55
(dp56
I5506
I1
sI668547
I1
sI5125
I1
sI35718
I1
sI55176
I1
sI266071
I1
sI28556
I1
sI4751
I4
sI34450
I1
sI5139
I3
sI28568
I2
sI162481
I1
sI4890
I38
sI286563
I1
sI4892
I1
sI5149
I1
sI5023
I2
sI654128
I1
sI1715235
I1
sI5543
I1
sI56488
I1
sI56494
I2
sI162480
I1
sI64561
I1
sI5042
I2
sI29875
I1
sI5339
I1
sI147550
I12
sI290614
I3
sI1851575
I1
sI5338
I2
sI5178
I7
sI41247
I2
sI92860
I3
sI78141
I3
sI89791
I1
sI5569
I2
sI1111111
I1
sI4815
I1
sI47817
I1
sI278090
I1
sI103886
I1
sI103887
I1
sI1634513
I1
sI43219
I2
sI5204
I1
sI147541
I3
sI5206
I2
sI858342
I1
sI147545
I6
sI134362
I2
sI34395
I10
sI147548
I4
sI34397
I1
sI681950
I1
sI37989
I1
sI292576
I2
sI297313
I1
sI92898
I1
sI155619
I1
sI37990
I1
sI5094
I5
sI1538025
I1
sI5226
I1
sI442663
I1
sI452337
I1
sI5234
I1
sI268179
I1
sI5583
I2
sI4855
I2
sI37240
I1
sI71935
I1
sI665596
I1
sI451454
I1
sI42367
I1
ssS'SRR7764422.fastq.gz_filtered.sam.match_0.5'
p57
(dp58
I5125
I2
sI47751
I1
sI4751
I3
sI34450
I2
sI34451
I4
sI68756
I1
sI28568
I1
sI162481
I2
sI4890
I31
sI286563
I1
sI5148
I1
sI134362
I2
sI41247
I3
sI5073
I1
sI147547
I2
sI29875
I1
sI442663
I1
sI56488
I1
sI4892
I1
sI231213
I1
sI64561
I4
sI5042
I1
sI5427
I1
sI681950
I1
sI290614
I1
sI5178
I7
sI5023
I1
sI92860
I1
sI78141
I6
sI42302
I1
sI1335925
I1
sI531904
I1
sI5569
I2
sI2024004
I1
sI5317
I1
sI517574
I1
sI214503
I1
sI1079112
I1
sI47817
I1
sI103886
I2
sI40144
I1
sI1634513
I1
sI43219
I2
sI5204
I3
sI147541
I5
sI5206
I1
sI147545
I2
sI5338
I4
sI34395
I6
sI147548
I2
sI34397
I1
sI147550
I8
sI37989
I1
sI155619
I1
sI37990
I1
sI5094
I5
sI37991
I1
sI306876
I1
sI56487
I1
sI5181
I1
sI452337
I1
sI139380
I1
sI80757
I1
sI4854
I1
sI4855
I1
sI37240
I2
sI40468
I1
sI1075807
I2
sI89791
I1
sI29820
I1
ssS'SRR7764418.fastq.gz_filtered.sam.match_0.5'
p59
(dp60
I979712
I1
sI5125
I3
sI43219
I4
sI147547
I1
sI4751
I4
sI34450
I3
sI34451
I3
sI121621
I1
sI28568
I1
sI162481
I1
sI4890
I20
sI5148
I1
sI41247
I2
sI452337
I1
sI1715235
I1
sI35718
I1
sI5543
I1
sI56488
I1
sI4892
I1
sI147549
I1
sI64561
I4
sI5042
I1
sI5178
I6
sI92860
I1
sI78141
I3
sI89791
I1
sI5569
I1
sI5186
I1
sI202694
I1
sI5581
I1
sI103886
I1
sI68815
I1
sI40144
I1
sI5073
I2
sI155619
I4
sI5204
I4
sI147541
I3
sI5206
I1
sI147545
I4
sI5338
I1
sI34395
I4
sI147548
I3
sI34397
I1
sI147550
I7
sI1075807
I3
sI36064
I1
sI297313
I2
sI286563
I2
sI5094
I4
sI37990
I1
sI5351
I1
sI517574
I1
sI5052
I1
sI1799786
I1
sI214503
I1
sI137746
I1
sI221678
I1
sI5226
I1
sI76657
I1
sI5234
I1
sI268179
I1
sI139380
I1
sI1335925
I1
sI4854
I2
sI4855
I2
sI37240
I1
sI474943
I1
sI292576
I1
ssS'SRR7764423.fastq.gz_filtered.sam.match_0.5'
p61
(dp62
I979712
I1
sI5506
I1
sI5125
I3
sI35718
I1
sI47751
I1
sI55176
I1
sI147547
I2
sI5260
I1
sI4751
I5
sI90257
I1
sI137746
I1
sI34451
I3
sI28568
I2
sI5401
I1
sI4890
I25
sI5148
I1
sI110618
I1
sI41247
I2
sI1715235
I1
sI64561
I2
sI5543
I1
sI56488
I1
sI40105
I1
sI162481
I1
sI5042
I1
sI155619
I1
sI156596
I1
sI681950
I1
sI290614
I2
sI1851575
I1
sI1132856
I1
sI5178
I5
sI92860
I3
sI78141
I5
sI42302
I1
sI89791
I1
sI5569
I3
sI2024004
I1
sI517574
I1
sI47817
I1
sI71953
I1
sI103886
I1
sI134362
I3
sI1759442
I1
sI43219
I2
sI5204
I1
sI147541
I6
sI5206
I2
sI29875
I1
sI147545
I5
sI5338
I3
sI34395
I3
sI147548
I7
sI34397
I2
sI147550
I13
sI37989
I1
sI155616
I1
sI286563
I1
sI37990
I1
sI5094
I5
sI214503
I1
sI37991
I1
sI34450
I2
sI221678
I1
sI452337
I1
sI5139
I3
sI139380
I1
sI80757
I1
sI4854
I2
sI4855
I3
sI37240
I1
sI5114
I1
sI269155
I1
sI665596
I1
sI56487
I1
ssS'SRR7764400.fastq.gz_filtered.sam.match_0.5'
p63
(dp64
I5506
I1
sI5125
I1
sI35718
I3
sI47751
I2
sI4751
I2
sI34451
I1
sI134362
I1
sI28568
I3
sI162481
I1
sI4890
I35
sI286563
I1
sI5148
I1
sI37990
I1
sI1339697
I1
sI41247
I3
sI5339
I1
sI371108
I1
sI5543
I2
sI64561
I4
sI5042
I1
sI29875
I1
sI56757
I1
sI290614
I5
sI1132856
I1
sI5178
I4
sI5023
I1
sI92860
I5
sI78141
I3
sI42302
I2
sI89791
I1
sI531904
I1
sI2024004
I1
sI681950
I3
sI47817
I1
sI29882
I1
sI5581
I1
sI103886
I3
sI43216
I1
sI1634513
I1
sI43219
I6
sI261460
I2
sI147541
I7
sI5206
I1
sI147545
I6
sI5338
I3
sI34395
I8
sI147548
I13
sI34397
I1
sI147550
I18
sI155619
I1
sI37989
I2
sI5094
I6
sI5052
I1
sI5226
I1
sI76657
I1
sI4854
I1
sI4855
I3
sI37240
I3
sI5204
I2
sI452337
I1
sI265084
I1
sI71934
I1
sI71935
I1
ssS'SRR7764414.fastq.gz_filtered.sam.match_0.5'
p65
(dp66
I979712
I1
sI5250
I1
sI5125
I1
sI35718
I1
sI152767
I1
sI268179
I1
sI1799703
I1
sI28568
I1
sI4890
I19
sI5148
I1
sI41247
I2
sI147547
I1
sI442663
I1
sI56488
I1
sI43219
I1
sI64561
I4
sI5042
I1
sI29875
I1
sI82105
I1
sI5178
I5
sI5023
I2
sI92860
I2
sI78141
I3
sI42302
I1
sI474943
I1
sI5569
I3
sI47817
I1
sI5581
I1
sI103886
I1
sI155619
I1
sI5204
I1
sI147541
I5
sI5206
I1
sI147545
I1
sI34395
I4
sI147548
I1
sI34397
I1
sI147550
I6
sI292576
I1
sI286563
I1
sI5094
I4
sI5543
I1
sI5181
I1
sI452337
I1
sI5139
I1
sI34451
I1
sI4855
I1
sI37240
I1
sI89791
I1
ssS'SRR7764395.fastq.gz_filtered.sam.match_0.5'
p67
(dp68
I5506
I1
sI155619
I2
sI5125
I3
sI47751
I1
sI55176
I2
sI28556
I1
sI5250
I1
sI71950
I1
sI4751
I3
sI71953
I1
sI34450
I1
sI34451
I4
sI80757
I1
sI28568
I3
sI5401
I1
sI4890
I30
sI5148
I1
sI5338
I4
sI41247
I3
sI147547
I4
sI452337
I1
sI56488
I2
sI40105
I1
sI162481
I1
sI5114
I1
sI64561
I5
sI5042
I2
sI29875
I1
sI162484
I2
sI681950
I2
sI290614
I3
sI1851575
I1
sI5178
I8
sI5023
I1
sI92860
I5
sI78141
I4
sI89791
I1
sI5569
I2
sI155616
I2
sI202694
I1
sI47817
I1
sI278090
I1
sI5475
I1
sI103886
I1
sI103887
I1
sI5368
I1
sI147538
I1
sI43219
I2
sI5204
I2
sI147541
I7
sI5339
I1
sI147545
I1
sI134362
I1
sI34395
I7
sI147548
I9
sI34397
I3
sI147550
I15
sI5139
I1
sI286563
I2
sI37990
I2
sI5094
I2
sI160871
I1
sI5206
I2
sI5226
I1
sI187248
I1
sI76657
I1
sI268179
I1
sI1335925
I1
sI4854
I2
sI4855
I2
sI37240
I2
sI5498
I1
sI269155
I1
ssS'SRR7764415.fastq.gz_filtered.sam.match_0.5'
p69
(dp70
I979712
I1
sI1715235
I1
sI5506
I1
sI155619
I1
sI5125
I4
sI35718
I1
sI147547
I2
sI28556
I1
sI184208
I1
sI71953
I1
sI34450
I1
sI268179
I1
sI121621
I1
sI28568
I1
sI110618
I1
sI5148
I1
sI4890
I29
sI41247
I3
sI5152
I1
sI5339
I1
sI64561
I3
sI5543
I1
sI56488
I1
sI36064
I1
sI56494
I1
sI162480
I1
sI162481
I1
sI5042
I2
sI29875
I1
sI156596
I1
sI147550
I15
sI290614
I4
sI1851575
I1
sI5178
I8
sI92860
I6
sI78141
I5
sI474942
I1
sI474943
I1
sI5569
I2
sI278090
I1
sI5581
I1
sI103886
I1
sI5583
I1
sI43216
I1
sI147538
I1
sI43219
I2
sI261460
I1
sI147541
I7
sI5206
I2
sI147545
I1
sI5338
I1
sI34395
I6
sI147548
I4
sI34397
I1
sI681950
I1
sI37989
I1
sI292576
I1
sI297313
I1
sI92898
I1
sI286563
I1
sI37990
I2
sI5094
I6
sI214503
I1
sI1538025
I1
sI5226
I1
sI221678
I1
sI5181
I1
sI187248
I1
sI76657
I1
sI40562
I1
sI5139
I1
sI139380
I1
sI42302
I1
sI4854
I1
sI4855
I3
sI37240
I1
sI5204
I2
sI1033978
I1
sI89791
I1
sI665596
I1
sI74837
I1
ssS'SRR7764406.fastq.gz_filtered.sam.match_0.5'
p71
(dp72
I979712
I2
sI5250
I1
sI5125
I1
sI35718
I1
sI47751
I1
sI55176
I1
sI5094
I2
sI34444
I1
sI4751
I2
sI184208
I1
sI71953
I1
sI5401
I1
sI34451
I1
sI68756
I1
sI121621
I1
sI489241
I1
sI28568
I1
sI162481
I1
sI4890
I27
sI286563
I2
sI5148
I1
sI5338
I1
sI41247
I1
sI442663
I1
sI330899
I1
sI64561
I2
sI1339697
I1
sI5468
I1
sI54958
I1
sI71729
I1
sI5042
I1
sI147550
I17
sI1851575
I1
sI82105
I1
sI5178
I8
sI92860
I4
sI5181
I1
sI5530
I1
sI299071
I1
sI5569
I3
sI47817
I1
sI5581
I1
sI89791
I1
sI43219
I3
sI5204
I1
sI147541
I6
sI5206
I2
sI134362
I1
sI34395
I2
sI147548
I2
sI34397
I1
sI681950
I1
sI155616
I1
sI103393
I1
sI92898
I1
sI155619
I1
sI37989
I1
sI37990
I2
sI265084
I1
sI5226
I1
sI5543
I1
sI221678
I1
sI78141
I5
sI187248
I1
sI29882
I1
sI5139
I2
sI1335925
I1
sI4855
I1
sI105983
I1
sI665596
I1
sI74837
I1
ssS'SRR7764403.fastq.gz_filtered.sam.match_0.5'
p73
(dp74
I979712
I1
sI71937
I1
sI5125
I2
sI47751
I1
sI4751
I4
sI71953
I1
sI5139
I1
sI121621
I1
sI28568
I1
sI4890
I14
sI286563
I1
sI37990
I2
sI41247
I2
sI147547
I1
sI5583
I1
sI5543
I1
sI56494
I2
sI64561
I2
sI5042
I1
sI29875
I1
sI56158
I1
sI290614
I1
sI5178
I5
sI92860
I1
sI78141
I3
sI42302
I1
sI89791
I1
sI5569
I1
sI88646
I1
sI47817
I1
sI103887
I1
sI5368
I1
sI155619
I1
sI5204
I1
sI147541
I5
sI5206
I1
sI147545
I2
sI5338
I1
sI34395
I5
sI147548
I10
sI34397
I1
sI147550
I7
sI155616
I1
sI5475
I1
sI37989
I1
sI5094
I2
sI221678
I1
sI452337
I1
sI43219
I4
sI4854
I1
sI4855
I1
sI37240
I1
ssS'SRR7764420.fastq.gz_filtered.sam.match_0.5'
p75
(dp76
I979712
I1
sI1715235
I1
sI5125
I1
sI47751
I1
sI34450
I2
sI5139
I1
sI5268
I1
sI28568
I1
sI4890
I27
sI5148
I1
sI110618
I1
sI155619
I1
sI147547
I3
sI162481
I1
sI162474
I1
sI64561
I3
sI5042
I3
sI29875
I1
sI156596
I1
sI290614
I2
sI5178
I8
sI41247
I1
sI92860
I2
sI78141
I5
sI42302
I1
sI299071
I1
sI5569
I2
sI5317
I1
sI47817
I1
sI40468
I1
sI5583
I1
sI40144
I1
sI147538
I1
sI43219
I2
sI261460
I1
sI147541
I4
sI5338
I1
sI34395
I4
sI147548
I3
sI34397
I1
sI147550
I6
sI155616
I1
sI297313
I1
sI286563
I1
sI5094
I2
sI37990
I1
sI214503
I1
sI5543
I1
sI1335925
I1
sI4854
I1
sI4855
I1
sI37240
I2
sI5204
I1
sI89791
I1
sI292576
I1
ssS'SRR7764417.fastq.gz_filtered.sam.match_0.5'
p77
(dp78
I1715235
I1
sI5506
I1
sI5125
I2
sI47751
I2
sI55176
I1
sI160909
I1
sI4751
I1
sI34451
I1
sI68756
I1
sI80757
I1
sI28568
I2
sI5401
I2
sI4890
I24
sI5402
I1
sI41247
I1
sI147547
I2
sI64561
I2
sI56488
I1
sI47021
I1
sI56494
I2
sI162481
I1
sI5042
I2
sI29875
I1
sI156596
I1
sI56158
I1
sI290614
I1
sI1851575
I1
sI5178
I4
sI92860
I1
sI78141
I4
sI474942
I1
sI152767
I1
sI36064
I1
sI5186
I1
sI5543
I1
sI47817
I1
sI103886
I1
sI5583
I1
sI43216
I1
sI5569
I1
sI43219
I2
sI5204
I1
sI147541
I7
sI5206
I1
sI147545
I3
sI5338
I1
sI34395
I5
sI147548
I2
sI34397
I1
sI147550
I6
sI155616
I3
sI92898
I1
sI37989
I2
sI5094
I5
sI214503
I1
sI41833
I1
sI5226
I1
sI442663
I1
sI147538
I1
sI5181
I1
sI5234
I1
sI5139
I1
sI42302
I1
sI4854
I2
sI4855
I2
sI134362
I1
sI89791
I1
sI665596
I1
sI451454
I1
ssS'SRR7764442.fastq.gz_filtered.sam.match_0.5'
p79
(dp80
I979712
I1
sI1715235
I1
sI5506
I1
sI13205
I1
sI5125
I3
sI35718
I1
sI47751
I1
sI55176
I1
sI4751
I2
sI89791
I1
sI34450
I1
sI34451
I3
sI40468
I1
sI121621
I1
sI28568
I2
sI5401
I1
sI4890
I31
sI286563
I1
sI5148
I1
sI134362
I1
sI41247
I2
sI34395
I10
sI64561
I4
sI452337
I1
sI56488
I1
sI5468
I1
sI1515438
I1
sI1339697
I1
sI5042
I1
sI29875
I1
sI290614
I3
sI5178
I6
sI5023
I2
sI92860
I1
sI78141
I4
sI474942
I1
sI474943
I1
sI51006
I1
sI2024004
I1
sI202694
I1
sI47817
I1
sI103886
I1
sI5583
I1
sI43216
I1
sI1634513
I1
sI5569
I1
sI43219
I3
sI5204
I2
sI147541
I6
sI5206
I1
sI147545
I2
sI5338
I3
sI147547
I2
sI147548
I4
sI34397
I2
sI147550
I17
sI155616
I2
sI297313
I1
sI92898
I1
sI155619
I1
sI5094
I4
sI5226
I1
sI5543
I1
sI5181
I1
sI187248
I1
sI76657
I1
sI5234
I1
sI5139
I1
sI42302
I2
sI4854
I1
sI4855
I2
sI68756
I1
sI5114
I1
sI42367
I1
sI665596
I2
sI71935
I1
ssS'SRR7764398.fastq.gz_filtered.sam.match_0.5'
p81
(dp82
I979712
I1
sI71937
I1
sI668547
I1
sI5125
I2
sI47751
I2
sI858342
I1
sI4751
I3
sI34451
I3
sI28568
I2
sI4890
I29
sI286563
I1
sI134362
I2
sI5023
I2
sI442663
I1
sI147547
I4
sI162481
I2
sI162480
I1
sI64561
I3
sI5042
I1
sI29875
I1
sI681950
I1
sI290614
I2
sI5178
I6
sI41247
I1
sI92860
I3
sI78141
I3
sI42302
I1
sI152767
I1
sI5569
I2
sI2024004
I2
sI5317
I2
sI470087
I1
sI47817
I1
sI155616
I1
sI5583
I1
sI43216
I1
sI147538
I2
sI43219
I3
sI261460
I2
sI147541
I11
sI5206
I1
sI147545
I6
sI5338
I4
sI34395
I7
sI147548
I12
sI34397
I2
sI147550
I18
sI37989
I1
sI292576
I1
sI155619
I2
sI5094
I4
sI37990
I2
sI214503
I1
sI5226
I1
sI5543
I1
sI1230397
I1
sI452337
I1
sI5234
I1
sI4854
I2
sI4855
I3
sI37240
I2
sI5204
I2
sI5498
I1
sI89791
I1
sI665596
I1
ssS'SRR7764425.fastq.gz_filtered.sam.match_0.5'
p83
(dp84
I5506
I1
sI5125
I2
sI35718
I1
sI5569
I1
sI4751
I1
sI162481
I1
sI34450
I1
sI5139
I1
sI182039
I1
sI28568
I1
sI5401
I1
sI4890
I21
sI286563
I2
sI5148
I1
sI41247
I3
sI147547
I2
sI371108
I1
sI5543
I1
sI56488
I1
sI68779
I1
sI231213
I1
sI56494
I1
sI64561
I2
sI5042
I2
sI29875
I1
sI290614
I3
sI1851575
I1
sI139380
I1
sI5178
I6
sI5023
I2
sI92860
I3
sI78141
I5
sI42302
I1
sI89791
I1
sI155616
I1
sI517574
I1
sI5073
I1
sI43219
I2
sI5204
I2
sI147541
I3
sI5206
I1
sI147545
I1
sI5338
I4
sI34395
I7
sI147548
I1
sI34397
I1
sI147550
I10
sI1075807
I1
sI292576
I1
sI5475
I1
sI5094
I3
sI214503
I1
sI5226
I1
sI442663
I1
sI452337
I1
sI268179
I1
sI34451
I1
sI4855
I1
sI37240
I2
sI1033978
I1
ssS'SRR7764392.fastq.gz_filtered.sam.match_0.5'
p85
(dp86
I35718
I1
sI34451
I1
sI40468
I1
sI28568
I2
sI5401
I1
sI4890
I13
sI5148
I1
sI41247
I1
sI1715235
I1
sI64561
I6
sI442663
I2
sI162481
I1
sI5042
I1
sI29875
I1
sI290614
I1
sI5178
I3
sI5023
I1
sI92860
I2
sI5181
I1
sI474943
I1
sI5569
I2
sI202694
I1
sI5581
I1
sI103886
I1
sI43219
I1
sI5204
I2
sI147541
I5
sI5206
I1
sI147545
I1
sI34395
I6
sI147548
I4
sI34397
I1
sI147550
I3
sI1075807
I1
sI155616
I1
sI5094
I1
sI5226
I1
sI5543
I1
sI78141
I6
sI139380
I1
sI4854
I1
sI4855
I2
sI37240
I2
sI89791
I1
sI665596
I1
sI292576
I1
sI74837
I1
ssS'SRR7764413.fastq.gz_filtered.sam.match_0.5'
p87
(dp88
I5506
I1
sI155619
I1
sI5125
I2
sI47751
I2
sI34450
I1
sI34451
I4
sI5268
I1
sI28568
I2
sI162481
I1
sI4890
I30
sI5148
I1
sI37990
I1
sI41247
I2
sI5569
I1
sI5073
I1
sI1715235
I1
sI5543
I2
sI40105
I1
sI56494
I2
sI64561
I2
sI5042
I1
sI29875
I1
sI156596
I2
sI290614
I1
sI5178
I4
sI37991
I1
sI5052
I1
sI78141
I6
sI89791
I1
sI531904
I1
sI36064
I1
sI2024004
I1
sI47817
I1
sI103886
I2
sI43216
I1
sI1634513
I1
sI1759442
I1
sI43219
I7
sI5204
I2
sI147541
I5
sI5206
I1
sI147545
I2
sI5338
I1
sI34395
I6
sI147548
I10
sI34397
I2
sI147550
I6
sI1075807
I2
sI155616
I1
sI297313
I1
sI286563
I1
sI37989
I2
sI5094
I4
sI160871
I1
sI214503
I1
sI76657
I1
sI268179
I1
sI1335925
I1
sI4854
I2
sI4855
I1
sI37240
I3
sI29820
I1
ssS'SRR7764437.fastq.gz_filtered.sam.match_0.5'
p89
(dp90
I979712
I1
sI34433
I1
sI5506
I1
sI5125
I3
sI35718
I1
sI47751
I1
sI147547
I2
sI160909
I1
sI4751
I2
sI71953
I1
sI34450
I1
sI34451
I3
sI54958
I1
sI28568
I1
sI5401
I1
sI4890
I27
sI121621
I1
sI5148
I1
sI134362
I1
sI5023
I1
sI1715235
I1
sI286563
I1
sI5543
I1
sI56488
I1
sI231213
I2
sI56494
I2
sI64561
I3
sI5042
I3
sI29875
I1
sI56158
I1
sI290614
I5
sI1851575
I1
sI29882
I1
sI41247
I1
sI92860
I4
sI78141
I3
sI474942
I1
sI89791
I1
sI5569
I3
sI5317
I1
sI47817
I1
sI296781
I2
sI5581
I1
sI40144
I1
sI147538
I2
sI43219
I2
sI5204
I3
sI147541
I7
sI5206
I2
sI147545
I4
sI5338
I3
sI34395
I6
sI147548
I3
sI34397
I2
sI147550
I15
sI155616
I1
sI297313
I1
sI92898
I1
sI155619
I1
sI766765
I1
sI5094
I4
sI160871
I1
sI5226
I1
sI5181
I1
sI452337
I1
sI40562
I1
sI5178
I7
sI4854
I2
sI4855
I2
sI37240
I1
sI5114
I1
sI299071
I1
sI665596
I1
sI5139
I1
ssS'SRR7764432.fastq.gz_filtered.sam.match_0.5'
p91
(dp92
I76657
I1
sI5506
I1
sI5125
I4
sI35718
I1
sI47751
I1
sI4751
I1
sI34450
I3
sI34451
I4
sI68756
I1
sI452334
I1
sI28568
I3
sI5401
I1
sI4890
I25
sI5148
I1
sI41247
I2
sI442663
I1
sI1715235
I1
sI29875
I1
sI162481
I1
sI56488
I1
sI89791
I1
sI34480
I1
sI64561
I5
sI5042
I2
sI155619
I1
sI156596
I2
sI4958
I1
sI290614
I1
sI5178
I6
sI92860
I2
sI78141
I5
sI42302
I1
sI56757
I1
sI5569
I1
sI2024004
I1
sI202694
I1
sI47817
I1
sI5581
I1
sI103886
I2
sI5583
I2
sI37840
I1
sI5073
I1
sI43219
I3
sI5204
I1
sI147541
I8
sI5206
I2
sI147545
I1
sI134362
I1
sI34395
I6
sI147548
I4
sI34397
I2
sI147550
I9
sI286563
I2
sI5094
I4
sI5543
I1
sI221678
I1
sI452337
I1
sI5139
I1
sI139380
I1
sI4855
I2
sI37240
I1
sI261460
I1
sI474943
I1
sI71935
I1
ssS'SRR7764438.fastq.gz_filtered.sam.match_0.5'
p93
(dp94
I979712
I1
sI5506
I1
sI5125
I2
sI35718
I1
sI55176
I1
sI4751
I1
sI90257
I1
sI34451
I1
sI68756
I1
sI5144
I1
sI5094
I3
sI4890
I24
sI5148
I2
sI110618
I1
sI41247
I1
sI147547
I1
sI64561
I4
sI56488
I2
sI40105
I1
sI231213
I1
sI56494
I1
sI5114
I2
sI1339697
I2
sI5042
I3
sI29875
I1
sI56158
I1
sI290614
I1
sI1851575
I1
sI5178
I7
sI5023
I1
sI92860
I2
sI78141
I4
sI42302
I1
sI89791
I1
sI5569
I3
sI234820
I1
sI103886
I2
sI1634513
I1
sI28568
I1
sI43219
I1
sI147541
I7
sI5206
I2
sI5338
I5
sI34395
I5
sI147548
I3
sI34397
I2
sI147550
I11
sI155616
I1
sI40289
I1
sI37989
I1
sI37990
I2
sI5226
I1
sI5543
I1
sI221678
I1
sI452337
I1
sI5234
I1
sI268179
I1
sI474942
I1
sI4854
I1
sI4855
I3
sI134362
I1
sI40468
I1
sI5498
I1
sI71669
I1
sI665596
I1
sI110846
I1
ssS'SRR7764444.fastq.gz_filtered.sam.match_0.5'
p95
(dp96
I5506
I1
sI5125
I3
sI47751
I2
sI4751
I3
sI5139
I2
sI28568
I2
sI5401
I1
sI4890
I24
sI5148
I1
sI41247
I2
sI37989
I1
sI34395
I5
sI64561
I1
sI5543
I1
sI56488
I1
sI47021
I1
sI71729
I1
sI5042
I2
sI681950
I1
sI290614
I4
sI5178
I7
sI92860
I2
sI78141
I3
sI474942
I1
sI71669
I1
sI5569
I2
sI5317
I1
sI517574
I1
sI47817
I1
sI5581
I1
sI103886
I1
sI43216
I1
sI286563
I2
sI5204
I2
sI147541
I5
sI5339
I1
sI147545
I1
sI5338
I5
sI147547
I3
sI147548
I4
sI34397
I2
sI147550
I8
sI858847
I1
sI155616
I1
sI297313
I2
sI92898
I1
sI155619
I2
sI5094
I3
sI37990
I1
sI37991
I1
sI5206
I1
sI452334
I1
sI5181
I1
sI43219
I2
sI139380
I1
sI51006
I1
sI4855
I1
sI37240
I2
sI5114
I1
sI89791
I1
sI292576
I1
sI42367
I1
ssS'SRR7764396.fastq.gz_filtered.sam.match_0.5'
p97
(dp98
I979712
I1
sI5250
I1
sI5125
I1
sI35718
I1
sI47751
I1
sI55176
I1
sI5506
I1
sI4751
I5
sI110618
I1
sI34451
I2
sI28568
I2
sI4890
I22
sI286563
I1
sI5338
I2
sI5023
I1
sI34395
I6
sI162481
I1
sI56488
I1
sI147548
I7
sI147549
I1
sI64561
I4
sI5042
I1
sI29875
I1
sI156596
I1
sI56158
I1
sI290614
I4
sI1851575
I1
sI5178
I8
sI41247
I2
sI92860
I5
sI5181
I1
sI474942
I1
sI474943
I1
sI42308
I1
sI47817
I1
sI103886
I1
sI5583
I2
sI43216
I1
sI147538
I1
sI43219
I1
sI5204
I1
sI147541
I10
sI5206
I1
sI147545
I2
sI134362
I2
sI407951
I1
sI5468
I1
sI34397
I2
sI147550
I9
sI292576
I2
sI269155
I1
sI5094
I3
sI37990
I2
sI214503
I1
sI5543
I1
sI78141
I2
sI452337
I1
sI5139
I1
sI139380
I1
sI42302
I1
sI4854
I1
sI4855
I3
sI37240
I1
sI5114
I1
sI89791
I1
ssS'SRR7764445.fastq.gz_filtered.sam.match_0.5'
p99
(dp100
I34433
I2
sI5125
I4
sI35718
I2
sI47751
I1
sI55176
I1
sI4751
I4
sI1715235
I1
sI137746
I1
sI34451
I3
sI40468
I1
sI80757
I1
sI28568
I4
sI162481
I2
sI110618
I1
sI286563
I1
sI4892
I1
sI4890
I30
sI74837
I1
sI41247
I2
sI37240
I1
sI147547
I4
sI71729
I1
sI40105
I2
sI68779
I1
sI5148
I1
sI54958
I1
sI64561
I4
sI5042
I2
sI29875
I1
sI156596
I1
sI681950
I2
sI290614
I4
sI37990
I1
sI146292
I1
sI5178
I7
sI1075807
I1
sI92860
I4
sI78141
I4
sI42302
I1
sI1335925
I1
sI5569
I1
sI5317
I1
sI1229510
I1
sI47817
I1
sI452343
I1
sI5581
I1
sI103886
I1
sI103887
I1
sI43216
I1
sI5368
I1
sI147538
I1
sI43219
I3
sI5204
I2
sI147541
I7
sI5206
I1
sI147545
I2
sI5338
I4
sI34395
I6
sI147548
I6
sI34397
I1
sI147550
I11
sI37989
I1
sI297313
I1
sI155619
I2
sI858342
I1
sI5094
I5
sI5226
I1
sI5543
I1
sI221678
I1
sI5181
I1
sI452337
I1
sI5139
I2
sI139380
I1
sI51006
I1
sI4854
I1
sI4855
I2
sI134362
I1
sI474943
I1
sI89791
I2
sI858847
I1
sI29909
I1
ssS'SRR7764428.fastq.gz_filtered.sam.match_0.5'
p101
(dp102
I51006
I1
sI432005
I1
sI35718
I1
sI71944
I1
sI34395
I6
sI160909
I1
sI4751
I2
sI34450
I1
sI34451
I2
sI13205
I1
sI28568
I1
sI5401
I1
sI4890
I26
sI162481
I1
sI110618
I1
sI41247
I1
sI1715235
I1
sI5543
I1
sI56488
I1
sI4892
I1
sI5148
I1
sI231213
I2
sI64561
I5
sI147547
I1
sI29875
I1
sI56158
I1
sI5178
I6
sI92860
I2
sI78141
I4
sI42302
I1
sI89791
I2
sI5569
I1
sI42308
I1
sI202694
I1
sI47817
I1
sI5581
I1
sI103886
I1
sI43219
I3
sI5204
I2
sI147541
I4
sI5206
I2
sI147545
I3
sI134362
I1
sI5339
I1
sI147548
I4
sI34397
I2
sI147550
I6
sI92898
I1
sI155619
I2
sI37989
I1
sI5094
I3
sI603431
I1
sI221678
I1
sI76657
I1
sI80757
I1
sI4854
I1
sI4855
I1
sI37240
I2
sI5125
I2
sI5042
I1
ssS'SRR7764412.fastq.gz_filtered.sam.match_0.5'
p103
(dp104
I34433
I1
sI5125
I3
sI35718
I1
sI47751
I1
sI160909
I1
sI4751
I4
sI34451
I2
sI121621
I1
sI28568
I1
sI5401
I3
sI4890
I23
sI5148
I1
sI5149
I1
sI5023
I2
sI34395
I4
sI162481
I1
sI40105
I2
sI162474
I1
sI56494
I2
sI64561
I4
sI5042
I1
sI29875
I1
sI290614
I2
sI596919
I1
sI5305
I1
sI5178
I4
sI41247
I1
sI5052
I1
sI78141
I4
sI42302
I1
sI89791
I1
sI5569
I2
sI2024004
I2
sI202694
I1
sI5581
I1
sI103886
I1
sI43216
I1
sI147538
I1
sI43219
I3
sI5204
I3
sI147541
I6
sI5206
I1
sI147545
I2
sI5338
I2
sI147547
I3
sI147548
I2
sI34397
I1
sI147550
I10
sI1075807
I1
sI71729
I1
sI286563
I1
sI37989
I1
sI5094
I4
sI5181
I1
sI187248
I1
sI40562
I1
sI5139
I1
sI80757
I1
sI4854
I1
sI4855
I3
sI37240
I2
sI665596
I3
sI292576
I1
sI13205
I1
ssS'SRR7764448.fastq.gz_filtered.sam.match_0.5'
p105
(dp106
I5250
I1
sI5339
I1
sI5125
I2
sI35718
I1
sI47751
I1
sI4751
I3
sI137746
I1
sI34451
I2
sI28568
I1
sI4890
I23
sI5148
I1
sI134362
I1
sI41247
I2
sI147547
I3
sI29875
I1
sI162481
I1
sI56488
I1
sI90268
I1
sI231213
I1
sI56494
I1
sI64561
I2
sI5042
I1
sI155619
I1
sI156596
I1
sI681950
I1
sI290614
I6
sI68793
I1
sI5178
I9
sI37991
I1
sI92860
I2
sI78141
I4
sI42302
I1
sI89791
I1
sI5569
I1
sI1049286
I1
sI47817
I1
sI1339697
I1
sI103886
I1
sI43216
I1
sI5073
I1
sI43219
I3
sI5204
I2
sI147541
I5
sI5206
I1
sI147545
I1
sI5338
I3
sI34395
I8
sI147548
I8
sI34397
I1
sI147550
I8
sI155616
I1
sI297313
I1
sI92898
I1
sI286563
I2
sI37990
I1
sI5094
I3
sI214503
I1
sI5226
I1
sI5543
I2
sI34450
I1
sI5181
I1
sI452337
I1
sI146292
I1
sI4854
I1
sI4855
I2
sI37240
I1
ssS'SRR7764430.fastq.gz_filtered.sam.match_0.5'
p107
(dp108
I1715235
I2
sI5125
I1
sI35718
I1
sI47751
I1
sI71944
I1
sI34450
I1
sI34451
I2
sI40468
I1
sI28568
I1
sI234820
I1
sI4890
I20
sI4892
I1
sI5023
I1
sI147547
I2
sI64561
I1
sI5543
I1
sI56488
I1
sI90268
I1
sI162481
I1
sI5042
I1
sI29875
I1
sI162484
I1
sI56158
I1
sI290614
I1
sI5178
I4
sI41247
I1
sI92860
I1
sI78141
I4
sI474942
I1
sI89791
I1
sI5569
I1
sI2024004
I1
sI155616
I1
sI47817
I1
sI103886
I1
sI45489
I1
sI155619
I1
sI5204
I2
sI147541
I4
sI147545
I1
sI5338
I2
sI34395
I7
sI147548
I5
sI34397
I1
sI147550
I10
sI292576
I1
sI286563
I1
sI37989
I1
sI5094
I5
sI47720
I1
sI221678
I1
sI5181
I1
sI40562
I1
sI43219
I2
sI42302
I1
sI4854
I1
sI4855
I1
sI37240
I2
ssS'SRR7764408.fastq.gz_filtered.sam.match_0.5'
p109
(dp110
I71937
I1
sI5506
I1
sI5125
I2
sI47751
I1
sI160909
I1
sI4751
I2
sI71953
I2
sI330899
I1
sI121621
I1
sI28568
I1
sI162481
I1
sI4890
I23
sI5148
I1
sI5338
I4
sI41247
I1
sI34395
I2
sI5543
I3
sI56494
I2
sI64561
I2
sI5042
I1
sI29875
I1
sI156596
I1
sI681950
I1
sI290614
I1
sI5178
I4
sI92860
I3
sI78141
I6
sI89791
I1
sI5569
I3
sI5317
I1
sI4815
I1
sI47817
I1
sI5581
I1
sI5583
I1
sI43219
I1
sI261460
I1
sI147541
I6
sI5206
I2
sI147545
I1
sI134362
I2
sI103887
I1
sI147548
I2
sI34397
I1
sI147550
I4
sI155616
I1
sI37989
I1
sI5094
I4
sI5351
I1
sI5226
I1
sI56487
I1
sI5181
I1
sI34451
I2
sI80757
I2
sI4854
I1
sI4855
I2
sI5204
I1
sI665596
I2
sI451454
I1
sI5139
I1
ssS'SRR7764436.fastq.gz_filtered.sam.match_0.5'
p111
(dp112
I979712
I2
sI5250
I1
sI5125
I2
sI35718
I1
sI47751
I2
sI103887
I1
sI152767
I1
sI4751
I7
sI89791
I1
sI34450
I1
sI34451
I1
sI121621
I1
sI28568
I1
sI162481
I1
sI4890
I38
sI4892
I1
sI41247
I1
sI5427
I1
sI147547
I1
sI4958
I1
sI5543
I2
sI56488
I1
sI5148
I1
sI64561
I2
sI5042
I2
sI29875
I1
sI156596
I2
sI147550
I11
sI290614
I1
sI1851575
I1
sI5178
I9
sI5023
I1
sI92860
I1
sI78141
I5
sI42302
I1
sI1335925
I1
sI531904
I1
sI5569
I3
sI1111111
I1
sI47817
I1
sI5581
I1
sI103886
I1
sI5583
I1
sI43216
I1
sI1634513
I1
sI147538
I1
sI286563
I1
sI5204
I1
sI147541
I7
sI5206
I1
sI147545
I7
sI5338
I2
sI34395
I7
sI147548
I3
sI34397
I1
sI681950
I1
sI37989
I2
sI474943
I1
sI92898
I1
sI155619
I1
sI56158
I1
sI5094
I7
sI37990
I2
sI5052
I1
sI5226
I1
sI5506
I1
sI41833
I1
sI452337
I1
sI43219
I3
sI139380
I1
sI80757
I1
sI4854
I2
sI4855
I2
sI37240
I2
sI221678
I1
sI105983
I1
sI665596
I1
sI71934
I1
sI42367
I1
ssS'SRR7764407.fastq.gz_filtered.sam.match_0.5'
p113
(dp114
I165440
I1
sI5506
I1
sI80643
I1
sI5125
I3
sI47751
I2
sI55176
I2
sI160909
I1
sI4751
I4
sI71953
I1
sI5139
I1
sI121621
I1
sI28568
I1
sI5401
I1
sI4890
I41
sI5148
I1
sI134362
I3
sI5023
I2
sI1715235
I2
sI371108
I1
sI64561
I3
sI5427
I1
sI5042
I1
sI56494
I2
sI162481
I1
sI5206
I2
sI29875
I1
sI156596
I1
sI147550
I15
sI290614
I2
sI1851575
I1
sI5338
I5
sI82105
I1
sI5178
I7
sI41247
I5
sI92860
I8
sI78141
I5
sI42302
I1
sI89791
I1
sI109632
I1
sI5569
I3
sI2024004
I1
sI681950
I2
sI47817
I1
sI278090
I1
sI60108
I1
sI93133
I1
sI147538
I1
sI43219
I2
sI5204
I2
sI147541
I8
sI5339
I1
sI147545
I5
sI150362
I1
sI34395
I9
sI147548
I4
sI34397
I2
sI56158
I1
sI155616
I1
sI92898
I1
sI155619
I2
sI5094
I4
sI265084
I1
sI5226
I1
sI5543
I2
sI221678
I1
sI5181
I1
sI5234
I1
sI268179
I2
sI34451
I2
sI80757
I1
sI4854
I3
sI4855
I2
sI146292
I1
sI5114
I1
sI474943
I1
sI665596
I1
sI292576
I1
sI105983
I1
ssS'SRR7764389.fastq.gz_filtered.sam.match_0.5'
p115
(dp116
I979712
I1
sI5125
I2
sI47751
I1
sI4751
I2
sI110618
I1
sI34451
I1
sI40468
I2
sI28568
I3
sI162481
I1
sI4890
I18
sI5148
I1
sI134362
I1
sI41247
I3
sI147547
I3
sI5543
I1
sI64561
I6
sI5042
I2
sI29875
I1
sI147550
I2
sI290614
I2
sI82105
I1
sI5178
I4
sI5023
I1
sI78141
I8
sI42302
I1
sI474943
I1
sI5569
I1
sI2024004
I1
sI147538
I1
sI43219
I4
sI5204
I1
sI147541
I3
sI147545
I6
sI5338
I3
sI34395
I4
sI147548
I2
sI34397
I2
sI681950
I1
sI37989
I1
sI155616
I2
sI297313
I1
sI155619
I4
sI56158
I1
sI37990
I1
sI5094
I4
sI41833
I1
sI404338
I1
sI139380
I1
sI80757
I1
sI4854
I3
sI4855
I1
sI37240
I2
sI89791
I1
sI29820
I1
ssS'SRR7764416.fastq.gz_filtered.sam.match_0.5'
p117
(dp118
I5506
I1
sI5125
I2
sI35718
I1
sI47751
I2
sI147547
I1
sI4751
I3
sI34450
I3
sI68755
I1
sI28568
I3
sI162481
I1
sI4890
I24
sI5148
I1
sI134362
I1
sI41247
I1
sI5152
I1
sI187248
I1
sI1715235
I1
sI442663
I1
sI56488
I1
sI68779
I1
sI56494
I2
sI71935
I1
sI64561
I3
sI5042
I2
sI29875
I1
sI156596
I3
sI681950
I1
sI290614
I3
sI5178
I6
sI5023
I1
sI92860
I4
sI78141
I4
sI89791
I2
sI5569
I3
sI2024004
I1
sI47817
I1
sI5581
I1
sI103886
I1
sI1335925
I1
sI43219
I2
sI147541
I5
sI5206
I2
sI147545
I1
sI5338
I3
sI34395
I8
sI147548
I3
sI34397
I2
sI147550
I12
sI1075807
I1
sI155616
I1
sI155619
I1
sI37990
I1
sI5094
I4
sI214503
I1
sI5543
I1
sI137746
I1
sI5181
I1
sI101104
I1
sI76657
I1
sI34451
I2
sI80757
I1
sI4854
I1
sI4855
I3
sI37240
I1
sI5498
I1
sI474943
I1
sI665596
I1
sI105983
I1
ssS'SRR7764439.fastq.gz_filtered.sam.match_0.5'
p119
(dp120
I146291
I1
sI5125
I2
sI47751
I2
sI55176
I1
sI4751
I2
sI5139
I1
sI40468
I1
sI28568
I2
sI4890
I21
sI134362
I2
sI5023
I2
sI1715235
I2
sI371108
I1
sI5543
I1
sI147548
I2
sI5042
I1
sI54958
I1
sI64561
I1
sI147547
I2
sI29875
I1
sI156596
I1
sI681950
I1
sI290614
I1
sI1851575
I1
sI5178
I9
sI41247
I1
sI92860
I2
sI78141
I5
sI42302
I1
sI152767
I1
sI5569
I2
sI517574
I1
sI1111111
I1
sI47817
I1
sI103886
I1
sI43219
I2
sI5204
I2
sI147541
I7
sI5206
I2
sI147545
I1
sI5338
I2
sI34395
I3
sI5468
I1
sI34397
I1
sI147550
I5
sI155616
I1
sI40289
I1
sI37989
I1
sI5094
I4
sI214503
I1
sI5226
I2
sI221678
I1
sI5181
I1
sI76657
I1
sI34451
I1
sI139380
I1
sI80757
I1
sI4855
I1
sI474943
I1
sI89791
I1
sI665596
I1
ss.